; ModuleID = '30/1736.c'
source_filename = "30/1736.c"
target datalayout = "e-m:e-p270:32:32-p271:32:32-p272:64:64-i64:64-f80:128-n8:16:32:64-S128"
target triple = "x86_64-pc-linux-gnu"

@.str = private unnamed_addr constant [3 x i8] c"%d\00", align 1
@.str.1 = private unnamed_addr constant [4 x i8] c"%d\0A\00", align 1

; Function Attrs: noinline nounwind uwtable
define dso_local i32 @main() #0 {
  %1 = alloca i32, align 4
  %2 = alloca i32, align 4
  %3 = alloca i32, align 4
  %4 = alloca i32, align 4
  %5 = alloca i32, align 4
  %6 = alloca double, align 8
  store i32 0, i32* %1, align 4
  store i32 1, i32* %3, align 4
  store i32 0, i32* %4, align 4
  %7 = call i32 (i8*, ...) @__isoc99_scanf(i8* getelementptr inbounds ([3 x i8], [3 x i8]* @.str, i64 0, i64 0), i32* %5)
  store i32 1, i32* %3, align 4
  br label %8

8:                                                ; preds = %42, %0
  %9 = load i32, i32* %3, align 4
  %10 = load i32, i32* %5, align 4
  %11 = icmp sle i32 %9, %10
  br i1 %11, label %12, label %45

12:                                               ; preds = %8
  %13 = load i32, i32* %3, align 4
  %14 = sub nsw i32 %13, 7
  %15 = sitofp i32 %14 to double
  %16 = fdiv double %15, 1.000000e+01
  store double %16, double* %6, align 8
  %17 = load i32, i32* %3, align 4
  %18 = sub nsw i32 %17, 7
  %19 = sdiv i32 %18, 10
  store i32 %19, i32* %2, align 4
  %20 = load i32, i32* %3, align 4
  %21 = srem i32 %20, 7
  %22 = icmp eq i32 %21, 0
  br i1 %22, label %34, label %23

23:                                               ; preds = %12
  %24 = load i32, i32* %3, align 4
  %25 = icmp slt i32 %24, 80
  br i1 %25, label %26, label %29

26:                                               ; preds = %23
  %27 = load i32, i32* %3, align 4
  %28 = icmp sgt i32 %27, 69
  br i1 %28, label %34, label %29

29:                                               ; preds = %26, %23
  %30 = load double, double* %6, align 8
  %31 = load i32, i32* %2, align 4
  %32 = sitofp i32 %31 to double
  %33 = fcmp oeq double %30, %32
  br i1 %33, label %34, label %35

34:                                               ; preds = %29, %26, %12
  br label %42

35:                                               ; preds = %29
  %36 = load i32, i32* %3, align 4
  %37 = load i32, i32* %3, align 4
  %38 = mul nsw i32 %36, %37
  %39 = load i32, i32* %4, align 4
  %40 = add nsw i32 %39, %38
  store i32 %40, i32* %4, align 4
  br label %41

41:                                               ; preds = %35
  br label %42

42:                                               ; preds = %41, %34
  %43 = load i32, i32* %3, align 4
  %44 = add nsw i32 %43, 1
  store i32 %44, i32* %3, align 4
  br label %8

45:                                               ; preds = %8
  %46 = load i32, i32* %4, align 4
  %47 = call i32 (i8*, ...) @printf(i8* getelementptr inbounds ([4 x i8], [4 x i8]* @.str.1, i64 0, i64 0), i32 %46)
  ret i32 0
}

declare dso_local i32 @__isoc99_scanf(i8*, ...) #1

declare dso_local i32 @printf(i8*, ...) #1


!llvm.module.flags = !{!0}
!llvm.ident = !{!1}

!0 = !{i32 1, !"wchar_size", i32 4}
!1 = !{!"clang version 10.0.0-4ubuntu1 "}
